; Function Attrs: mustprogress nofree norecurse nosync nounwind willreturn memory(read, inaccessiblemem: none) uwtable
define hidden noundef nonnull ptr @_ZN6google8protobuf14DynamicMessage20MutableExtensionsRawEv(ptr noundef nonnull readonly align 8 dereferenceable(28) %0) local_unnamed_addr #5 align 2 {
  %2 = getelementptr inbounds nuw i8, ptr %0, i64 16
  %3 = load ptr, ptr %2, align 8, !tbaa !10
  %4 = getelementptr inbounds nuw i8, ptr %3, i64 12
  %5 = load i32, ptr %4, align 4, !tbaa !56
  %6 = sext i32 %5 to i64
  %7 = getelementptr inbounds i8, ptr %0, i64 %6
  ret ptr %7
}